target datalayout = "e-m:e-p270:32:32-p271:32:32-p272:64:64-i64:64-i128:128-f80:128-n8:16:32:64-S128"
target triple = "x86_64-pc-linux-gnu"

%struct.AF_GlyphHintsRec_ = type { ptr, i64, i64, i64, i64, i32, i32, ptr, i32, i32, ptr, [2 x %struct.AF_AxisHintsRec_], i32, i32, ptr, %struct.anon.0 }
%struct.AF_AxisHintsRec_ = type { i32, i32, ptr, i32, i32, ptr, i32, %struct.anon }
%struct.anon = type { [18 x %struct.AF_SegmentRec_], [12 x %struct.AF_EdgeRec_] }
%struct.AF_SegmentRec_ = type { i8, i8, i16, i16, i16, i16, i16, ptr, ptr, ptr, ptr, i64, i64, ptr, ptr }
%struct.AF_EdgeRec_ = type { i16, i64, i64, i8, i8, i64, ptr, ptr, ptr, i32, ptr, ptr }
%struct.anon.0 = type { [8 x ptr], [96 x %struct.AF_PointRec_] }
%struct.AF_PointRec_ = type { i16, i8, i8, i64, i64, i16, i16, i64, i64, i64, i64, ptr, ptr }

; Function Attrs: nounwind uwtable
define internal i64 @af_hint_normal_stem(ptr noundef %0, ptr noundef %1, ptr noundef %2, i64 noundef %3, i32 noundef %4) #0 {
  %6 = alloca ptr, align 8
  %7 = alloca ptr, align 8
  %8 = alloca ptr, align 8
  %9 = alloca i64, align 8
  %10 = alloca i32, align 4
  %11 = alloca i64, align 8
  %12 = alloca i64, align 8
  %13 = alloca i64, align 8
  %14 = alloca i64, align 8
  %15 = alloca i64, align 8
  %16 = alloca i64, align 8
  %17 = alloca i64, align 8
  %18 = alloca i64, align 8
  %19 = alloca i64, align 8
  %20 = alloca i64, align 8
  %21 = alloca i64, align 8
  %22 = alloca i64, align 8
  store ptr %0, ptr %6, align 8, !tbaa !48
  store ptr %1, ptr %7, align 8, !tbaa !283
  store ptr %2, ptr %8, align 8, !tbaa !283
  store i64 %3, ptr %9, align 8, !tbaa !42
  store i32 %4, ptr %10, align 4, !tbaa !43
  call void @llvm.lifetime.start.p0(i64 8, ptr %11) #10
  call void @llvm.lifetime.start.p0(i64 8, ptr %12) #10
  call void @llvm.lifetime.start.p0(i64 8, ptr %13) #10
  call void @llvm.lifetime.start.p0(i64 8, ptr %14) #10
  call void @llvm.lifetime.start.p0(i64 8, ptr %15) #10
  call void @llvm.lifetime.start.p0(i64 8, ptr %16) #10
  call void @llvm.lifetime.start.p0(i64 8, ptr %17) #10
  call void @llvm.lifetime.start.p0(i64 8, ptr %18) #10
  call void @llvm.lifetime.start.p0(i64 8, ptr %19) #10
  call void @llvm.lifetime.start.p0(i64 8, ptr %20) #10
  call void @llvm.lifetime.start.p0(i64 8, ptr %21) #10
  call void @llvm.lifetime.start.p0(i64 8, ptr %22) #10
  store i64 64, ptr %22, align 8, !tbaa !42
  %23 = load ptr, ptr %6, align 8, !tbaa !48
  %24 = getelementptr inbounds nuw %struct.AF_GlyphHintsRec_, ptr %23, i32 0, i32 13
  %25 = load i32, ptr %24, align 4, !tbaa !62
  %26 = and i32 %25, 4
  %27 = icmp ne i32 %26, 0
  br i1 %27, label %55, label %28

28:                                               ; preds = %5
  %29 = load ptr, ptr %7, align 8, !tbaa !283
  %30 = getelementptr inbounds nuw %struct.AF_EdgeRec_, ptr %29, i32 0, i32 3
  %31 = load i8, ptr %30, align 8, !tbaa !324
  %32 = zext i8 %31 to i32
  %33 = and i32 %32, 1
  %34 = icmp ne i32 %33, 0
  br i1 %34, label %35, label %48

35:                                               ; preds = %28
  %36 = load ptr, ptr %8, align 8, !tbaa !283
  %37 = getelementptr inbounds nuw %struct.AF_EdgeRec_, ptr %36, i32 0, i32 3
  %38 = load i8, ptr %37, align 8, !tbaa !324
  %39 = zext i8 %38 to i32
  %40 = and i32 %39, 1
  %41 = icmp ne i32 %40, 0
  br i1 %41, label %42, label %48

42:                                               ; preds = %35
  %43 = load i32, ptr %10, align 4, !tbaa !43
  %44 = icmp eq i32 %43, 1
  br i1 %44, label %45, label %46

45:                                               ; preds = %42
  store i64 55, ptr %22, align 8, !tbaa !42
  br label %47

46:                                               ; preds = %42
  store i64 49, ptr %22, align 8, !tbaa !42
  br label %47

47:                                               ; preds = %46, %45
  br label %54

48:                                               ; preds = %35, %28
  %49 = load i32, ptr %10, align 4, !tbaa !43
  %50 = icmp eq i32 %49, 1
  br i1 %50, label %51, label %52

51:                                               ; preds = %48
  store i64 61, ptr %22, align 8, !tbaa !42
  br label %53

52:                                               ; preds = %48
  store i64 59, ptr %22, align 8, !tbaa !42
  br label %53

53:                                               ; preds = %52, %51
  br label %54

54:                                               ; preds = %53, %47
  br label %55

55:                                               ; preds = %54, %5
  %56 = load ptr, ptr %8, align 8, !tbaa !283
  %57 = getelementptr inbounds nuw %struct.AF_EdgeRec_, ptr %56, i32 0, i32 1
  %58 = load i64, ptr %57, align 8, !tbaa !330
  %59 = load ptr, ptr %7, align 8, !tbaa !283
  %60 = getelementptr inbounds nuw %struct.AF_EdgeRec_, ptr %59, i32 0, i32 1
  %61 = load i64, ptr %60, align 8, !tbaa !330
  %62 = sub nsw i64 %58, %61
  store i64 %62, ptr %11, align 8, !tbaa !42
  %63 = load ptr, ptr %6, align 8, !tbaa !48
  %64 = load i32, ptr %10, align 4, !tbaa !43
  %65 = load i64, ptr %11, align 8, !tbaa !42
  %66 = load ptr, ptr %7, align 8, !tbaa !283
  %67 = getelementptr inbounds nuw %struct.AF_EdgeRec_, ptr %66, i32 0, i32 3
  %68 = load i8, ptr %67, align 8, !tbaa !324
  %69 = zext i8 %68 to i32
  %70 = load ptr, ptr %8, align 8, !tbaa !283
  %71 = getelementptr inbounds nuw %struct.AF_EdgeRec_, ptr %70, i32 0, i32 3
  %72 = load i8, ptr %71, align 8, !tbaa !324
  %73 = zext i8 %72 to i32
  %74 = call i64 @af_cjk_compute_stem_width(ptr noundef %63, i32 noundef %64, i64 noundef %65, i32 noundef %69, i32 noundef %73)
  store i64 %74, ptr %12, align 8, !tbaa !42
  %75 = load ptr, ptr %7, align 8, !tbaa !283
  %76 = getelementptr inbounds nuw %struct.AF_EdgeRec_, ptr %75, i32 0, i32 1
  %77 = load i64, ptr %76, align 8, !tbaa !330
  %78 = load ptr, ptr %8, align 8, !tbaa !283
  %79 = getelementptr inbounds nuw %struct.AF_EdgeRec_, ptr %78, i32 0, i32 1
  %80 = load i64, ptr %79, align 8, !tbaa !330
  %81 = add nsw i64 %77, %80
  %82 = sdiv i64 %81, 2
  %83 = load i64, ptr %9, align 8, !tbaa !42
  %84 = add nsw i64 %82, %83
  store i64 %84, ptr %13, align 8, !tbaa !42
  %85 = load i64, ptr %13, align 8, !tbaa !42
  %86 = load i64, ptr %12, align 8, !tbaa !42
  %87 = sdiv i64 %86, 2
  %88 = sub nsw i64 %85, %87
  store i64 %88, ptr %14, align 8, !tbaa !42
  %89 = load i64, ptr %14, align 8, !tbaa !42
  %90 = load i64, ptr %12, align 8, !tbaa !42
  %91 = add nsw i64 %89, %90
  store i64 %91, ptr %15, align 8, !tbaa !42
  %92 = load i64, ptr %14, align 8, !tbaa !42
  %93 = load i64, ptr %14, align 8, !tbaa !42
  %94 = and i64 %93, -64
  %95 = sub nsw i64 %92, %94
  store i64 %95, ptr %16, align 8, !tbaa !42
  %96 = load i64, ptr %15, align 8, !tbaa !42
  %97 = load i64, ptr %15, align 8, !tbaa !42
  %98 = and i64 %97, -64
  %99 = sub nsw i64 %96, %98
  store i64 %99, ptr %18, align 8, !tbaa !42
  %100 = load i64, ptr %16, align 8, !tbaa !42
  %101 = sub nsw i64 64, %100
  store i64 %101, ptr %17, align 8, !tbaa !42
  %102 = load i64, ptr %18, align 8, !tbaa !42
  %103 = sub nsw i64 64, %102
  store i64 %103, ptr %19, align 8, !tbaa !42
  store i64 0, ptr %20, align 8, !tbaa !42
  %104 = load i64, ptr %16, align 8, !tbaa !42
  %105 = icmp eq i64 %104, 0
  br i1 %105, label %109, label %106

106:                                              ; preds = %55
  %107 = load i64, ptr %18, align 8, !tbaa !42
  %108 = icmp eq i64 %107, 0
  br i1 %108, label %109, label %110

109:                                              ; preds = %106, %55
  br label %219

110:                                              ; preds = %106
  %111 = load i64, ptr %12, align 8, !tbaa !42
  %112 = load i64, ptr %22, align 8, !tbaa !42
  %113 = icmp sle i64 %111, %112
  br i1 %113, label %114, label %129

114:                                              ; preds = %110
  %115 = load i64, ptr %18, align 8, !tbaa !42
  %116 = load i64, ptr %12, align 8, !tbaa !42
  %117 = icmp slt i64 %115, %116
  br i1 %117, label %118, label %128

118:                                              ; preds = %114
  %119 = load i64, ptr %17, align 8, !tbaa !42
  %120 = load i64, ptr %18, align 8, !tbaa !42
  %121 = icmp sle i64 %119, %120
  br i1 %121, label %122, label %124

122:                                              ; preds = %118
  %123 = load i64, ptr %17, align 8, !tbaa !42
  store i64 %123, ptr %20, align 8, !tbaa !42
  br label %127

124:                                              ; preds = %118
  %125 = load i64, ptr %18, align 8, !tbaa !42
  %126 = sub nsw i64 0, %125
  store i64 %126, ptr %20, align 8, !tbaa !42
  br label %127

127:                                              ; preds = %124, %122
  br label %128

128:                                              ; preds = %127, %114
  br label %219

129:                                              ; preds = %110
  %130 = load i64, ptr %22, align 8, !tbaa !42
  %131 = icmp slt i64 %130, 64
  br i1 %131, label %132, label %150

132:                                              ; preds = %129
  %133 = load i64, ptr %16, align 8, !tbaa !42
  %134 = load i64, ptr %22, align 8, !tbaa !42
  %135 = icmp sge i64 %133, %134
  br i1 %135, label %148, label %136

136:                                              ; preds = %132
  %137 = load i64, ptr %17, align 8, !tbaa !42
  %138 = load i64, ptr %22, align 8, !tbaa !42
  %139 = icmp sge i64 %137, %138
  br i1 %139, label %148, label %140

140:                                              ; preds = %136
  %141 = load i64, ptr %18, align 8, !tbaa !42
  %142 = load i64, ptr %22, align 8, !tbaa !42
  %143 = icmp sge i64 %141, %142
  br i1 %143, label %148, label %144

144:                                              ; preds = %140
  %145 = load i64, ptr %19, align 8, !tbaa !42
  %146 = load i64, ptr %22, align 8, !tbaa !42
  %147 = icmp sge i64 %145, %146
  br i1 %147, label %148, label %149

148:                                              ; preds = %144, %140, %136, %132
  br label %219

149:                                              ; preds = %144
  br label %150

150:                                              ; preds = %149, %129
  %151 = load i64, ptr %12, align 8, !tbaa !42
  %152 = and i64 %151, 63
  store i64 %152, ptr %21, align 8, !tbaa !42
  %153 = load i64, ptr %21, align 8, !tbaa !42
  %154 = icmp slt i64 %153, 32
  br i1 %154, label %155, label %165

155:                                              ; preds = %150
  %156 = load i64, ptr %17, align 8, !tbaa !42
  %157 = load i64, ptr %21, align 8, !tbaa !42
  %158 = icmp sle i64 %156, %157
  br i1 %158, label %163, label %159

159:                                              ; preds = %155
  %160 = load i64, ptr %18, align 8, !tbaa !42
  %161 = load i64, ptr %21, align 8, !tbaa !42
  %162 = icmp sle i64 %160, %161
  br i1 %162, label %163, label %164

163:                                              ; preds = %159, %155
  br label %219

164:                                              ; preds = %159
  br label %168

165:                                              ; preds = %150
  %166 = load i64, ptr %22, align 8, !tbaa !42
  %167 = sub nsw i64 64, %166
  store i64 %167, ptr %21, align 8, !tbaa !42
  br label %168

168:                                              ; preds = %165, %164
  %169 = load i64, ptr %22, align 8, !tbaa !42
  %170 = load i64, ptr %17, align 8, !tbaa !42
  %171 = sub nsw i64 %169, %170
  store i64 %171, ptr %16, align 8, !tbaa !42
  %172 = load i64, ptr %17, align 8, !tbaa !42
  %173 = load i64, ptr %21, align 8, !tbaa !42
  %174 = sub nsw i64 %172, %173
  store i64 %174, ptr %17, align 8, !tbaa !42
  %175 = load i64, ptr %22, align 8, !tbaa !42
  %176 = load i64, ptr %18, align 8, !tbaa !42
  %177 = sub nsw i64 %175, %176
  store i64 %177, ptr %19, align 8, !tbaa !42
  %178 = load i64, ptr %18, align 8, !tbaa !42
  %179 = load i64, ptr %21, align 8, !tbaa !42
  %180 = sub nsw i64 %178, %179
  store i64 %180, ptr %18, align 8, !tbaa !42
  %181 = load i64, ptr %16, align 8, !tbaa !42
  %182 = load i64, ptr %17, align 8, !tbaa !42
  %183 = icmp sle i64 %181, %182
  br i1 %183, label %184, label %187

184:                                              ; preds = %168
  %185 = load i64, ptr %16, align 8, !tbaa !42
  %186 = sub nsw i64 0, %185
  store i64 %186, ptr %17, align 8, !tbaa !42
  br label %187

187:                                              ; preds = %184, %168
  %188 = load i64, ptr %18, align 8, !tbaa !42
  %189 = load i64, ptr %19, align 8, !tbaa !42
  %190 = icmp sle i64 %188, %189
  br i1 %190, label %191, label %194

191:                                              ; preds = %187
  %192 = load i64, ptr %18, align 8, !tbaa !42
  %193 = sub nsw i64 0, %192
  store i64 %193, ptr %19, align 8, !tbaa !42
  br label %194

194:                                              ; preds = %191, %187
  %195 = load i64, ptr %17, align 8, !tbaa !42
  %196 = icmp slt i64 %195, 0
  br i1 %196, label %197, label %200

197:                                              ; preds = %194
  %198 = load i64, ptr %17, align 8, !tbaa !42
  %199 = sub nsw i64 0, %198
  br label %202

200:                                              ; preds = %194
  %201 = load i64, ptr %17, align 8, !tbaa !42
  br label %202

202:                                              ; preds = %200, %197
  %203 = phi i64 [ %199, %197 ], [ %201, %200 ]
  %204 = load i64, ptr %19, align 8, !tbaa !42
  %205 = icmp slt i64 %204, 0
  br i1 %205, label %206, label %209

206:                                              ; preds = %202
  %207 = load i64, ptr %19, align 8, !tbaa !42
  %208 = sub nsw i64 0, %207
  br label %211

209:                                              ; preds = %202
  %210 = load i64, ptr %19, align 8, !tbaa !42
  br label %211

211:                                              ; preds = %209, %206
  %212 = phi i64 [ %208, %206 ], [ %210, %209 ]
  %213 = icmp sle i64 %203, %212
  br i1 %213, label %214, label %216

214:                                              ; preds = %211
  %215 = load i64, ptr %17, align 8, !tbaa !42
  store i64 %215, ptr %20, align 8, !tbaa !42
  br label %218

216:                                              ; preds = %211
  %217 = load i64, ptr %19, align 8, !tbaa !42
  store i64 %217, ptr %20, align 8, !tbaa !42
  br label %218

218:                                              ; preds = %216, %214
  br label %219

219:                                              ; preds = %218, %163, %148, %128, %109
  %220 = load ptr, ptr %6, align 8, !tbaa !48
  %221 = getelementptr inbounds nuw %struct.AF_GlyphHintsRec_, ptr %220, i32 0, i32 13
  %222 = load i32, ptr %221, align 4, !tbaa !62
  %223 = and i32 %222, 4
  %224 = icmp ne i32 %223, 0
  br i1 %224, label %235, label %225

225:                                              ; preds = %219
  %226 = load i64, ptr %20, align 8, !tbaa !42
  %227 = icmp sgt i64 %226, 14
  br i1 %227, label %228, label %229

228:                                              ; preds = %225
  store i64 14, ptr %20, align 8, !tbaa !42
  br label %234

229:                                              ; preds = %225
  %230 = load i64, ptr %20, align 8, !tbaa !42
  %231 = icmp slt i64 %230, -14
  br i1 %231, label %232, label %233

232:                                              ; preds = %229
  store i64 -14, ptr %20, align 8, !tbaa !42
  br label %233

233:                                              ; preds = %232, %229
  br label %234

234:                                              ; preds = %233, %228
  br label %235

235:                                              ; preds = %234, %219
  %236 = load i64, ptr %20, align 8, !tbaa !42
  %237 = load i64, ptr %14, align 8, !tbaa !42
  %238 = add nsw i64 %237, %236
  store i64 %238, ptr %14, align 8, !tbaa !42
  %239 = load ptr, ptr %7, align 8, !tbaa !283
  %240 = getelementptr inbounds nuw %struct.AF_EdgeRec_, ptr %239, i32 0, i32 1
  %241 = load i64, ptr %240, align 8, !tbaa !330
  %242 = load ptr, ptr %8, align 8, !tbaa !283
  %243 = getelementptr inbounds nuw %struct.AF_EdgeRec_, ptr %242, i32 0, i32 1
  %244 = load i64, ptr %243, align 8, !tbaa !330
  %245 = icmp slt i64 %241, %244
  br i1 %245, label %246, label %255

246:                                              ; preds = %235
  %247 = load i64, ptr %14, align 8, !tbaa !42
  %248 = load ptr, ptr %7, align 8, !tbaa !283
  %249 = getelementptr inbounds nuw %struct.AF_EdgeRec_, ptr %248, i32 0, i32 2
  store i64 %247, ptr %249, align 8, !tbaa !327
  %250 = load i64, ptr %14, align 8, !tbaa !42
  %251 = load i64, ptr %12, align 8, !tbaa !42
  %252 = add nsw i64 %250, %251
  %253 = load ptr, ptr %8, align 8, !tbaa !283
  %254 = getelementptr inbounds nuw %struct.AF_EdgeRec_, ptr %253, i32 0, i32 2
  store i64 %252, ptr %254, align 8, !tbaa !327
  br label %264

255:                                              ; preds = %235
  %256 = load i64, ptr %14, align 8, !tbaa !42
  %257 = load i64, ptr %12, align 8, !tbaa !42
  %258 = add nsw i64 %256, %257
  %259 = load ptr, ptr %7, align 8, !tbaa !283
  %260 = getelementptr inbounds nuw %struct.AF_EdgeRec_, ptr %259, i32 0, i32 2
  store i64 %258, ptr %260, align 8, !tbaa !327
  %261 = load i64, ptr %14, align 8, !tbaa !42
  %262 = load ptr, ptr %8, align 8, !tbaa !283
  %263 = getelementptr inbounds nuw %struct.AF_EdgeRec_, ptr %262, i32 0, i32 2
  store i64 %261, ptr %263, align 8, !tbaa !327
  br label %264

264:                                              ; preds = %255, %246
  %265 = load i64, ptr %20, align 8, !tbaa !42
  call void @llvm.lifetime.end.p0(i64 8, ptr %22) #10
  call void @llvm.lifetime.end.p0(i64 8, ptr %21) #10
  call void @llvm.lifetime.end.p0(i64 8, ptr %20) #10
  call void @llvm.lifetime.end.p0(i64 8, ptr %19) #10
  call void @llvm.lifetime.end.p0(i64 8, ptr %18) #10
  call void @llvm.lifetime.end.p0(i64 8, ptr %17) #10
  call void @llvm.lifetime.end.p0(i64 8, ptr %16) #10
  call void @llvm.lifetime.end.p0(i64 8, ptr %15) #10
  call void @llvm.lifetime.end.p0(i64 8, ptr %14) #10
  call void @llvm.lifetime.end.p0(i64 8, ptr %13) #10
  call void @llvm.lifetime.end.p0(i64 8, ptr %12) #10
  call void @llvm.lifetime.end.p0(i64 8, ptr %11) #10
  ret i64 %265
}