; Function Attrs: nofree norecurse nosync nounwind memory(read, argmem: readwrite, inaccessiblemem: none) uwtable
define internal fastcc range(i64 -63, 65) i64 @af_hint_normal_stem(ptr noundef readonly captures(none) %0, ptr noundef captures(none) initializes((16, 24)) %1, ptr noundef nonnull captures(none) initializes((16, 24)) %2, i64 noundef range(i64 -9223372036854775807, -9223372036854775808) %3, i32 noundef range(i32 0, 2) %4) unnamed_addr #11 {
  %6 = getelementptr inbounds nuw i8, ptr %0, i64 5148
  %7 = load i32, ptr %6, align 4, !tbaa !84
  %8 = and i32 %7, 4
  %.not = icmp eq i32 %8, 0
  br i1 %.not, label %9, label %._crit_edge

9:                                                ; preds = %5
  %10 = getelementptr inbounds nuw i8, ptr %1, i64 24
  %11 = load i8, ptr %10, align 8, !tbaa !202
  %12 = and i8 %11, 1
  %.not105 = icmp eq i8 %12, 0
  br i1 %.not105, label %18, label %13

13:                                               ; preds = %9
  %14 = getelementptr inbounds nuw i8, ptr %2, i64 24
  %15 = load i8, ptr %14, align 8, !tbaa !202
  %16 = and i8 %15, 1
  %.not106 = icmp eq i8 %16, 0
  br i1 %.not106, label %18, label %17

17:                                               ; preds = %13
  %.not108 = icmp eq i32 %4, 0
  %. = select i1 %.not108, i64 49, i64 55
  br label %._crit_edge

18:                                               ; preds = %13, %9
  %.not107 = icmp eq i32 %4, 0
  %.121 = select i1 %.not107, i64 59, i64 61
  br label %._crit_edge

._crit_edge:                                      ; preds = %5, %18, %17
  %.0 = phi i64 [ %., %17 ], [ %.121, %18 ], [ 64, %5 ]
  %19 = getelementptr inbounds nuw i8, ptr %2, i64 8
  %20 = load i64, ptr %19, align 8, !tbaa !95
  %21 = getelementptr inbounds nuw i8, ptr %1, i64 8
  %22 = load i64, ptr %21, align 8, !tbaa !95
  %23 = sub nsw i64 %20, %22
  %24 = getelementptr i8, ptr %0, i64 5152
  %.val128 = load ptr, ptr %24, align 8, !tbaa !69
  %25 = tail call fastcc i64 @af_cjk_compute_stem_width(i32 %7, ptr %.val128, i32 noundef %4, i64 noundef %23)
  %26 = add nsw i64 %22, %20
  %27 = sdiv i64 %26, 2
  %28 = add nsw i64 %27, %3
  %.neg = sdiv i64 %25, -2
  %29 = add i64 %28, %.neg
  %30 = add nsw i64 %29, %25
  %31 = and i64 %29, 63
  %32 = and i64 %30, 63
  %33 = sub nuw nsw i64 64, %31
  %34 = sub nuw nsw i64 64, %32
  %35 = icmp eq i64 %31, 0
  %36 = icmp eq i64 %32, 0
  %or.cond = select i1 %35, i1 true, i1 %36
  br i1 %or.cond, label %59, label %37

37:                                               ; preds = %._crit_edge
  %.not109 = icmp sgt i64 %25, %.0
  br i1 %.not109, label %42, label %38

38:                                               ; preds = %37
  %39 = icmp slt i64 %32, %25
  br i1 %39, label %40, label %59

40:                                               ; preds = %38
  %.not119 = icmp samesign ugt i64 %33, %32
  %41 = sub nsw i64 0, %32
  %spec.select126 = select i1 %.not119, i64 %41, i64 %33
  br label %59

42:                                               ; preds = %37
  br i1 %.not, label %43, label %44

43:                                               ; preds = %42
  %.not110 = icmp samesign ult i64 %31, %.0
  %.not111 = icmp samesign ult i64 %33, %.0
  %or.cond122 = select i1 %.not110, i1 %.not111, i1 false
  %.not112 = icmp samesign ult i64 %32, %.0
  %or.cond123 = select i1 %or.cond122, i1 %.not112, i1 false
  %.not113 = icmp samesign ult i64 %34, %.0
  %or.cond124 = select i1 %or.cond123, i1 %.not113, i1 false
  br i1 %or.cond124, label %44, label %.thread131

44:                                               ; preds = %43, %42
  %45 = and i64 %25, 63
  %46 = icmp samesign ult i64 %45, 32
  br i1 %46, label %47, label %48

47:                                               ; preds = %44
  %.not114 = icmp samesign ugt i64 %33, %45
  %.not115 = icmp samesign ugt i64 %32, %45
  %or.cond125 = select i1 %.not114, i1 %.not115, i1 false
  br i1 %or.cond125, label %50, label %59

48:                                               ; preds = %44
  %49 = sub nuw nsw i64 64, %.0
  br label %50

50:                                               ; preds = %47, %48
  %.091 = phi i64 [ %49, %48 ], [ %45, %47 ]
  %51 = sub nsw i64 %.0, %33
  %52 = sub nsw i64 %33, %.091
  %53 = sub nsw i64 %.0, %32
  %54 = sub nsw i64 %32, %.091
  %.not116 = icmp sgt i64 %51, %52
  %55 = sub nsw i64 0, %51
  %spec.select = select i1 %.not116, i64 %52, i64 %55
  %.not117 = icmp sgt i64 %54, %53
  %56 = sub nsw i64 0, %54
  %.093 = select i1 %.not117, i64 %53, i64 %56
  %57 = tail call i64 @llvm.abs.i64(i64 %spec.select, i1 true)
  %58 = tail call i64 @llvm.abs.i64(i64 %.093, i1 true)
  %.not118 = icmp samesign ugt i64 %57, %58
  %spec.select127 = select i1 %.not118, i64 %.093, i64 %spec.select
  br label %59

59:                                               ; preds = %50, %40, %47, %38, %._crit_edge
  %.092 = phi i64 [ 0, %._crit_edge ], [ 0, %38 ], [ 0, %47 ], [ %spec.select126, %40 ], [ %spec.select127, %50 ]
  br i1 %.not, label %60, label %62

60:                                               ; preds = %59
  %61 = icmp sgt i64 %.092, 14
  br i1 %61, label %62, label %.thread131

.thread131:                                       ; preds = %43, %60
  %.092130133 = phi i64 [ %.092, %60 ], [ 0, %43 ]
  %spec.store.select = tail call i64 @llvm.smax.i64(i64 %.092130133, i64 -14)
  br label %62

62:                                               ; preds = %60, %.thread131, %59
  %.1 = phi i64 [ %.092, %59 ], [ %spec.store.select, %.thread131 ], [ 14, %60 ]
  %63 = add nsw i64 %.1, %29
  %64 = icmp slt i64 %22, %20
  %65 = add nsw i64 %63, %25
  %.135 = select i1 %64, i64 %63, i64 %65
  %.136 = select i1 %64, i64 %65, i64 %63
  %66 = getelementptr inbounds nuw i8, ptr %1, i64 16
  store i64 %.135, ptr %66, align 8, !tbaa !94
  %67 = getelementptr inbounds nuw i8, ptr %2, i64 16
  store i64 %.136, ptr %67, align 8, !tbaa !94
  ret i64 %.1
}